target datalayout = "e-m:e-p270:32:32-p271:32:32-p272:64:64-i64:64-i128:128-f80:128-n8:16:32:64-S128"
target triple = "x86_64-pc-linux-gnu"

%"class.std::__cxx11::basic_string" = type { %"struct.std::__cxx11::basic_string<char>::_Alloc_hider", i64, %union.anon }
%"struct.std::__cxx11::basic_string<char>::_Alloc_hider" = type { ptr }
%union.anon = type { i64, [8 x i8] }
%"class.pxrInternal_v0_24__pxrReserved__::HdReprSelector" = type { %"class.pxrInternal_v0_24__pxrReserved__::TfToken", %"class.pxrInternal_v0_24__pxrReserved__::TfToken", %"class.pxrInternal_v0_24__pxrReserved__::TfToken" }
%"class.pxrInternal_v0_24__pxrReserved__::TfToken" = type { %"class.pxrInternal_v0_24__pxrReserved__::TfPointerAndBits" }
%"class.pxrInternal_v0_24__pxrReserved__::TfPointerAndBits" = type { ptr }
%"class.pxrInternal_v0_24__pxrReserved__::Hd_TestDriver" = type { %"class.pxrInternal_v0_24__pxrReserved__::HdEngine", %"class.pxrInternal_v0_24__pxrReserved__::Hd_UnitTestNullRenderDelegate", ptr, ptr, %"class.pxrInternal_v0_24__pxrReserved__::SdfPath", %"class.std::shared_ptr", %"class.std::shared_ptr.6", %"class.pxrInternal_v0_24__pxrReserved__::HdRprimCollection" }
%"class.pxrInternal_v0_24__pxrReserved__::HdEngine" = type { ptr, %"class.std::unordered_map" }
%"class.std::unordered_map" = type { %"class.std::_Hashtable" }
%"class.std::_Hashtable" = type { ptr, i64, %"struct.std::__detail::_Hash_node_base", i64, %"struct.std::__detail::_Prime_rehash_policy", ptr }
%"struct.std::__detail::_Hash_node_base" = type { ptr }
%"struct.std::__detail::_Prime_rehash_policy" = type { float, i64 }
%"class.pxrInternal_v0_24__pxrReserved__::Hd_UnitTestNullRenderDelegate" = type { %"class.pxrInternal_v0_24__pxrReserved__::HdRenderDelegate" }
%"class.pxrInternal_v0_24__pxrReserved__::HdRenderDelegate" = type { ptr, %"class.pxrInternal_v0_24__pxrReserved__::TfHashMap", i32, %"class.std::__cxx11::basic_string" }
%"class.pxrInternal_v0_24__pxrReserved__::TfHashMap" = type { %"class.std::unordered_map" }
%"class.pxrInternal_v0_24__pxrReserved__::SdfPath" = type { %"struct.pxrInternal_v0_24__pxrReserved__::Sdf_PathNodeHandleImpl", %"struct.pxrInternal_v0_24__pxrReserved__::Sdf_PathNodeHandleImpl.5" }
%"struct.pxrInternal_v0_24__pxrReserved__::Sdf_PathNodeHandleImpl" = type { %"struct.pxrInternal_v0_24__pxrReserved__::Sdf_Pool<pxrInternal_v0_24__pxrReserved__::Sdf_PathPrimTag, 24, 8>::Handle" }
%"struct.pxrInternal_v0_24__pxrReserved__::Sdf_Pool<pxrInternal_v0_24__pxrReserved__::Sdf_PathPrimTag, 24, 8>::Handle" = type { i32 }
%"struct.pxrInternal_v0_24__pxrReserved__::Sdf_PathNodeHandleImpl.5" = type { %"struct.pxrInternal_v0_24__pxrReserved__::Sdf_Pool<pxrInternal_v0_24__pxrReserved__::Sdf_PathPropTag, 24, 8>::Handle" }
%"struct.pxrInternal_v0_24__pxrReserved__::Sdf_Pool<pxrInternal_v0_24__pxrReserved__::Sdf_PathPropTag, 24, 8>::Handle" = type { i32 }
%"class.std::shared_ptr" = type { %"class.std::__shared_ptr" }
%"class.std::__shared_ptr" = type { ptr, %"class.std::__shared_count" }
%"class.std::__shared_count" = type { ptr }
%"class.std::shared_ptr.6" = type { %"class.std::__shared_ptr.7" }
%"class.std::__shared_ptr.7" = type { ptr, %"class.std::__shared_count" }
%"class.pxrInternal_v0_24__pxrReserved__::HdRprimCollection" = type { ptr, %"class.pxrInternal_v0_24__pxrReserved__::TfToken", %"class.pxrInternal_v0_24__pxrReserved__::HdReprSelector", i8, %"class.pxrInternal_v0_24__pxrReserved__::TfToken", %"class.std::vector", %"class.std::vector" }
%"class.std::vector" = type { %"struct.std::_Vector_base" }
%"struct.std::_Vector_base" = type { %"struct.std::_Vector_base<pxrInternal_v0_24__pxrReserved__::SdfPath, std::allocator<pxrInternal_v0_24__pxrReserved__::SdfPath>>::_Vector_impl" }
%"struct.std::_Vector_base<pxrInternal_v0_24__pxrReserved__::SdfPath, std::allocator<pxrInternal_v0_24__pxrReserved__::SdfPath>>::_Vector_impl" = type { %"struct.std::_Vector_base<pxrInternal_v0_24__pxrReserved__::SdfPath, std::allocator<pxrInternal_v0_24__pxrReserved__::SdfPath>>::_Vector_impl_data" }
%"struct.std::_Vector_base<pxrInternal_v0_24__pxrReserved__::SdfPath, std::allocator<pxrInternal_v0_24__pxrReserved__::SdfPath>>::_Vector_impl_data" = type { ptr, ptr, ptr }
%"class.std::vector.12" = type { %"struct.std::_Vector_base.13" }
%"struct.std::_Vector_base.13" = type { %"struct.std::_Vector_base<pxrInternal_v0_24__pxrReserved__::TfToken, std::allocator<pxrInternal_v0_24__pxrReserved__::TfToken>>::_Vector_impl" }
%"struct.std::_Vector_base<pxrInternal_v0_24__pxrReserved__::TfToken, std::allocator<pxrInternal_v0_24__pxrReserved__::TfToken>>::_Vector_impl" = type { %"struct.std::_Vector_base<pxrInternal_v0_24__pxrReserved__::TfToken, std::allocator<pxrInternal_v0_24__pxrReserved__::TfToken>>::_Vector_impl_data" }
%"struct.std::_Vector_base<pxrInternal_v0_24__pxrReserved__::TfToken, std::allocator<pxrInternal_v0_24__pxrReserved__::TfToken>>::_Vector_impl_data" = type { ptr, ptr, ptr }
%"class.std::vector.240" = type { %"struct.std::_Vector_base.241" }
%"struct.std::_Vector_base.241" = type { %"struct.std::_Vector_base<pxrInternal_v0_24__pxrReserved__::HdDriver *, std::allocator<pxrInternal_v0_24__pxrReserved__::HdDriver *>>::_Vector_impl" }
%"struct.std::_Vector_base<pxrInternal_v0_24__pxrReserved__::HdDriver *, std::allocator<pxrInternal_v0_24__pxrReserved__::HdDriver *>>::_Vector_impl" = type { %"struct.std::_Vector_base<pxrInternal_v0_24__pxrReserved__::HdDriver *, std::allocator<pxrInternal_v0_24__pxrReserved__::HdDriver *>>::_Vector_impl_data" }
%"struct.std::_Vector_base<pxrInternal_v0_24__pxrReserved__::HdDriver *, std::allocator<pxrInternal_v0_24__pxrReserved__::HdDriver *>>::_Vector_impl_data" = type { ptr, ptr, ptr }
%"class.pxrInternal_v0_24__pxrReserved__::HdRenderIndex" = type { %"class.pxrInternal_v0_24__pxrReserved__::TfRefPtr", %"class.pxrInternal_v0_24__pxrReserved__::TfRefPtr.100", i32, %"class.std::unique_ptr", %"class.pxrInternal_v0_24__pxrReserved__::TfRefPtr.103", %"class.pxrInternal_v0_24__pxrReserved__::TfRefPtr.104", %"class.pxrInternal_v0_24__pxrReserved__::TfHashMap.105", %"class.pxrInternal_v0_24__pxrReserved__::Hd_SortedIds", %"class.std::vector", %"class.std::unordered_map.128", %"class.pxrInternal_v0_24__pxrReserved__::Hd_PrimTypeIndex", %"class.pxrInternal_v0_24__pxrReserved__::Hd_PrimTypeIndex.166", %"class.pxrInternal_v0_24__pxrReserved__::HdChangeTracker", %"class.pxrInternal_v0_24__pxrReserved__::TfHashMap.225", ptr, %"class.std::vector.240", %"class.std::__cxx11::basic_string", %"class.std::vector.245", %"class.pxrInternal_v0_24__pxrReserved__::HdDirtyList" }
%"class.pxrInternal_v0_24__pxrReserved__::TfRefPtr" = type { ptr }
%"class.pxrInternal_v0_24__pxrReserved__::TfRefPtr.100" = type { ptr }
%"class.std::unique_ptr" = type { %"struct.std::__uniq_ptr_data" }
%"struct.std::__uniq_ptr_data" = type { %"class.std::__uniq_ptr_impl" }
%"class.std::__uniq_ptr_impl" = type { %"class.std::tuple" }
%"class.std::tuple" = type { %"struct.std::_Tuple_impl" }
%"struct.std::_Tuple_impl" = type { %"struct.std::_Head_base.102" }
%"struct.std::_Head_base.102" = type { ptr }
%"class.pxrInternal_v0_24__pxrReserved__::TfRefPtr.103" = type { ptr }
%"class.pxrInternal_v0_24__pxrReserved__::TfRefPtr.104" = type { ptr }
%"class.pxrInternal_v0_24__pxrReserved__::TfHashMap.105" = type { %"class.std::unordered_map.106" }
%"class.std::unordered_map.106" = type { %"class.std::_Hashtable.107" }
%"class.std::_Hashtable.107" = type { ptr, i64, %"struct.std::__detail::_Hash_node_base", i64, %"struct.std::__detail::_Prime_rehash_policy", ptr }
%"class.pxrInternal_v0_24__pxrReserved__::Hd_SortedIds" = type { %"class.std::vector", %"class.std::vector", i32, %"class.std::unique_ptr.120" }
%"class.std::unique_ptr.120" = type { %"struct.std::__uniq_ptr_data.121" }
%"struct.std::__uniq_ptr_data.121" = type { %"class.std::__uniq_ptr_impl.122" }
%"class.std::__uniq_ptr_impl.122" = type { %"class.std::tuple.123" }
%"class.std::tuple.123" = type { %"struct.std::_Tuple_impl.124" }
%"struct.std::_Tuple_impl.124" = type { %"struct.std::_Head_base.127" }
%"struct.std::_Head_base.127" = type { ptr }
%"class.std::unordered_map.128" = type { %"class.std::_Hashtable.129" }
%"class.std::_Hashtable.129" = type { ptr, i64, %"struct.std::__detail::_Hash_node_base", i64, %"struct.std::__detail::_Prime_rehash_policy", ptr }
%"class.pxrInternal_v0_24__pxrReserved__::Hd_PrimTypeIndex" = type { %"class.std::vector.142", %"class.std::unordered_map.147", %"class.std::vector.161", %"class.std::vector.12" }
%"class.std::vector.142" = type { %"struct.std::_Vector_base.143" }
%"struct.std::_Vector_base.143" = type { %"struct.std::_Vector_base<pxrInternal_v0_24__pxrReserved__::Hd_PrimTypeIndex<pxrInternal_v0_24__pxrReserved__::HdSprim>::_PrimTypeEntry, std::allocator<pxrInternal_v0_24__pxrReserved__::Hd_PrimTypeIndex<pxrInternal_v0_24__pxrReserved__::HdSprim>::_PrimTypeEntry>>::_Vector_impl" }
%"struct.std::_Vector_base<pxrInternal_v0_24__pxrReserved__::Hd_PrimTypeIndex<pxrInternal_v0_24__pxrReserved__::HdSprim>::_PrimTypeEntry, std::allocator<pxrInternal_v0_24__pxrReserved__::Hd_PrimTypeIndex<pxrInternal_v0_24__pxrReserved__::HdSprim>::_PrimTypeEntry>>::_Vector_impl" = type { %"struct.std::_Vector_base<pxrInternal_v0_24__pxrReserved__::Hd_PrimTypeIndex<pxrInternal_v0_24__pxrReserved__::HdSprim>::_PrimTypeEntry, std::allocator<pxrInternal_v0_24__pxrReserved__::Hd_PrimTypeIndex<pxrInternal_v0_24__pxrReserved__::HdSprim>::_PrimTypeEntry>>::_Vector_impl_data" }
%"struct.std::_Vector_base<pxrInternal_v0_24__pxrReserved__::Hd_PrimTypeIndex<pxrInternal_v0_24__pxrReserved__::HdSprim>::_PrimTypeEntry, std::allocator<pxrInternal_v0_24__pxrReserved__::Hd_PrimTypeIndex<pxrInternal_v0_24__pxrReserved__::HdSprim>::_PrimTypeEntry>>::_Vector_impl_data" = type { ptr, ptr, ptr }
%"class.std::unordered_map.147" = type { %"class.std::_Hashtable.148" }
%"class.std::_Hashtable.148" = type { ptr, i64, %"struct.std::__detail::_Hash_node_base", i64, %"struct.std::__detail::_Prime_rehash_policy", ptr }
%"class.std::vector.161" = type { %"struct.std::_Vector_base.162" }
%"struct.std::_Vector_base.162" = type { %"struct.std::_Vector_base<pxrInternal_v0_24__pxrReserved__::HdSceneDelegate *, std::allocator<pxrInternal_v0_24__pxrReserved__::HdSceneDelegate *>>::_Vector_impl" }
%"struct.std::_Vector_base<pxrInternal_v0_24__pxrReserved__::HdSceneDelegate *, std::allocator<pxrInternal_v0_24__pxrReserved__::HdSceneDelegate *>>::_Vector_impl" = type { %"struct.std::_Vector_base<pxrInternal_v0_24__pxrReserved__::HdSceneDelegate *, std::allocator<pxrInternal_v0_24__pxrReserved__::HdSceneDelegate *>>::_Vector_impl_data" }
%"struct.std::_Vector_base<pxrInternal_v0_24__pxrReserved__::HdSceneDelegate *, std::allocator<pxrInternal_v0_24__pxrReserved__::HdSceneDelegate *>>::_Vector_impl_data" = type { ptr, ptr, ptr }
%"class.pxrInternal_v0_24__pxrReserved__::Hd_PrimTypeIndex.166" = type { %"class.std::vector.167", %"class.std::unordered_map.147", %"class.std::vector.161", %"class.std::vector.12" }
%"class.std::vector.167" = type { %"struct.std::_Vector_base.168" }
%"struct.std::_Vector_base.168" = type { %"struct.std::_Vector_base<pxrInternal_v0_24__pxrReserved__::Hd_PrimTypeIndex<pxrInternal_v0_24__pxrReserved__::HdBprim>::_PrimTypeEntry, std::allocator<pxrInternal_v0_24__pxrReserved__::Hd_PrimTypeIndex<pxrInternal_v0_24__pxrReserved__::HdBprim>::_PrimTypeEntry>>::_Vector_impl" }
%"struct.std::_Vector_base<pxrInternal_v0_24__pxrReserved__::Hd_PrimTypeIndex<pxrInternal_v0_24__pxrReserved__::HdBprim>::_PrimTypeEntry, std::allocator<pxrInternal_v0_24__pxrReserved__::Hd_PrimTypeIndex<pxrInternal_v0_24__pxrReserved__::HdBprim>::_PrimTypeEntry>>::_Vector_impl" = type { %"struct.std::_Vector_base<pxrInternal_v0_24__pxrReserved__::Hd_PrimTypeIndex<pxrInternal_v0_24__pxrReserved__::HdBprim>::_PrimTypeEntry, std::allocator<pxrInternal_v0_24__pxrReserved__::Hd_PrimTypeIndex<pxrInternal_v0_24__pxrReserved__::HdBprim>::_PrimTypeEntry>>::_Vector_impl_data" }
%"struct.std::_Vector_base<pxrInternal_v0_24__pxrReserved__::Hd_PrimTypeIndex<pxrInternal_v0_24__pxrReserved__::HdBprim>::_PrimTypeEntry, std::allocator<pxrInternal_v0_24__pxrReserved__::Hd_PrimTypeIndex<pxrInternal_v0_24__pxrReserved__::HdBprim>::_PrimTypeEntry>>::_Vector_impl_data" = type { ptr, ptr, ptr }
%"class.pxrInternal_v0_24__pxrReserved__::HdChangeTracker" = type { ptr, %"class.pxrInternal_v0_24__pxrReserved__::TfHashMap.172", %"class.pxrInternal_v0_24__pxrReserved__::TfHashMap.172", %"class.pxrInternal_v0_24__pxrReserved__::TfHashMap.172", %"class.pxrInternal_v0_24__pxrReserved__::TfHashMap.172", %"class.pxrInternal_v0_24__pxrReserved__::TfHashMap.172", %"class.pxrInternal_v0_24__pxrReserved__::TfHashMap.187", %"class.pxrInternal_v0_24__pxrReserved__::TfHashMap.202", %"class.tbb::detail::d2::concurrent_hash_map", %"class.tbb::detail::d2::concurrent_hash_map", %"class.tbb::detail::d2::concurrent_hash_map", %"class.tbb::detail::d2::concurrent_hash_map", %"class.tbb::detail::d2::concurrent_hash_map", i32, i32, i32, i32, i32, i32, i32, i32, i32, i32, ptr }
%"class.pxrInternal_v0_24__pxrReserved__::TfHashMap.172" = type { %"class.std::unordered_map.173" }
%"class.std::unordered_map.173" = type { %"class.std::_Hashtable.174" }
%"class.std::_Hashtable.174" = type { ptr, i64, %"struct.std::__detail::_Hash_node_base", i64, %"struct.std::__detail::_Prime_rehash_policy", ptr }
%"class.pxrInternal_v0_24__pxrReserved__::TfHashMap.187" = type { %"class.std::unordered_map.188" }
%"class.std::unordered_map.188" = type { %"class.std::_Hashtable.189" }
%"class.std::_Hashtable.189" = type { ptr, i64, %"struct.std::__detail::_Hash_node_base", i64, %"struct.std::__detail::_Prime_rehash_policy", ptr }
%"class.pxrInternal_v0_24__pxrReserved__::TfHashMap.202" = type { %"class.std::unordered_map.203" }
%"class.std::unordered_map.203" = type { %"class.std::_Hashtable.204" }
%"class.std::_Hashtable.204" = type { ptr, i64, %"struct.std::__detail::_Hash_node_base", i64, %"struct.std::__detail::_Prime_rehash_policy", ptr }
%"class.tbb::detail::d2::concurrent_hash_map" = type <{ %"class.tbb::detail::d2::hash_map_base", [8 x i8] }>
%"class.tbb::detail::d2::hash_map_base" = type { [8 x i8], %"struct.std::atomic.217", %"struct.std::atomic.217", [2 x %"struct.tbb::detail::d2::hash_map_base<tbb::detail::d1::tbb_allocator<std::pair<const pxrInternal_v0_24__pxrReserved__::SdfPath, std::set<pxrInternal_v0_24__pxrReserved__::SdfPath>>>, tbb::detail::d1::spin_rw_mutex>::bucket"], [64 x %"struct.std::atomic.223"] }
%"struct.std::atomic.217" = type { %"struct.std::__atomic_base.218" }
%"struct.std::__atomic_base.218" = type { i64 }
%"struct.tbb::detail::d2::hash_map_base<tbb::detail::d1::tbb_allocator<std::pair<const pxrInternal_v0_24__pxrReserved__::SdfPath, std::set<pxrInternal_v0_24__pxrReserved__::SdfPath>>>, tbb::detail::d1::spin_rw_mutex>::bucket" = type { %"class.tbb::detail::d1::spin_rw_mutex", %"struct.std::atomic.221" }
%"class.tbb::detail::d1::spin_rw_mutex" = type { %"struct.std::atomic.219" }
%"struct.std::atomic.219" = type { %"struct.std::__atomic_base.220" }
%"struct.std::__atomic_base.220" = type { i64 }
%"struct.std::atomic.221" = type { %"struct.std::__atomic_base.222" }
%"struct.std::__atomic_base.222" = type { ptr }
%"struct.std::atomic.223" = type { %"struct.std::__atomic_base.224" }
%"struct.std::__atomic_base.224" = type { ptr }
%"class.pxrInternal_v0_24__pxrReserved__::TfHashMap.225" = type { %"class.std::unordered_map.226" }
%"class.std::unordered_map.226" = type { %"class.std::_Hashtable.227" }
%"class.std::_Hashtable.227" = type { ptr, i64, %"struct.std::__detail::_Hash_node_base", i64, %"struct.std::__detail::_Prime_rehash_policy", ptr }
%"class.std::vector.245" = type { %"struct.std::_Vector_base.246" }
%"struct.std::_Vector_base.246" = type { %"struct.std::_Vector_base<pxrInternal_v0_24__pxrReserved__::HdRprimCollection, std::allocator<pxrInternal_v0_24__pxrReserved__::HdRprimCollection>>::_Vector_impl" }
%"struct.std::_Vector_base<pxrInternal_v0_24__pxrReserved__::HdRprimCollection, std::allocator<pxrInternal_v0_24__pxrReserved__::HdRprimCollection>>::_Vector_impl" = type { %"struct.std::_Vector_base<pxrInternal_v0_24__pxrReserved__::HdRprimCollection, std::allocator<pxrInternal_v0_24__pxrReserved__::HdRprimCollection>>::_Vector_impl_data" }
%"struct.std::_Vector_base<pxrInternal_v0_24__pxrReserved__::HdRprimCollection, std::allocator<pxrInternal_v0_24__pxrReserved__::HdRprimCollection>>::_Vector_impl_data" = type { ptr, ptr, ptr }
%"class.pxrInternal_v0_24__pxrReserved__::HdDirtyList" = type <{ ptr, %"class.std::vector.12", %"class.std::vector.250", %"class.std::vector", i32, i32, i32, i32, i8, i8, [6 x i8] }>
%"class.std::vector.250" = type { %"struct.std::_Vector_base.251" }
%"struct.std::_Vector_base.251" = type { %"struct.std::_Vector_base<pxrInternal_v0_24__pxrReserved__::HdReprSelector, std::allocator<pxrInternal_v0_24__pxrReserved__::HdReprSelector>>::_Vector_impl" }
%"struct.std::_Vector_base<pxrInternal_v0_24__pxrReserved__::HdReprSelector, std::allocator<pxrInternal_v0_24__pxrReserved__::HdReprSelector>>::_Vector_impl" = type { %"struct.std::_Vector_base<pxrInternal_v0_24__pxrReserved__::HdReprSelector, std::allocator<pxrInternal_v0_24__pxrReserved__::HdReprSelector>>::_Vector_impl_data" }
%"struct.std::_Vector_base<pxrInternal_v0_24__pxrReserved__::HdReprSelector, std::allocator<pxrInternal_v0_24__pxrReserved__::HdReprSelector>>::_Vector_impl_data" = type { ptr, ptr, ptr }

; Function Attrs: mustprogress nounwind uwtable
define linkonce_odr noundef ptr @_ZNKSt12__shared_ptrIN32pxrInternal_v0_24__pxrReserved__12HdRenderPassELN9__gnu_cxx12_Lock_policyE2EE3getEv(ptr noundef nonnull align 8 dereferenceable(16) %0) #4 comdat align 2 {
  %2 = alloca ptr, align 8
  store ptr %0, ptr %2, align 8
  %3 = load ptr, ptr %2, align 8
  %4 = getelementptr inbounds nuw %"class.std::__shared_ptr", ptr %3, i32 0, i32 0
  %5 = load ptr, ptr %4, align 8
  ret ptr %5
}

; Function Attrs: mustprogress nounwind uwtable
define linkonce_odr noundef ptr @_ZNKSt19__shared_ptr_accessIN32pxrInternal_v0_24__pxrReserved__12HdRenderPassELN9__gnu_cxx12_Lock_policyE2ELb0ELb0EE6_M_getEv(ptr noundef nonnull align 1 dereferenceable(1) %0) #4 comdat align 2 {
  %2 = alloca ptr, align 8
  store ptr %0, ptr %2, align 8
  %3 = load ptr, ptr %2, align 8
  %4 = call noundef ptr @_ZNKSt12__shared_ptrIN32pxrInternal_v0_24__pxrReserved__12HdRenderPassELN9__gnu_cxx12_Lock_policyE2EE3getEv(ptr noundef nonnull align 8 dereferenceable(16) %3) #14
  ret ptr %4
}

; Function Attrs: mustprogress nounwind uwtable
define linkonce_odr noundef ptr @_ZNKSt19__shared_ptr_accessIN32pxrInternal_v0_24__pxrReserved__12HdRenderPassELN9__gnu_cxx12_Lock_policyE2ELb0ELb0EEptEv(ptr noundef nonnull align 1 dereferenceable(1) %0) #4 comdat align 2 {
  %2 = alloca ptr, align 8
  store ptr %0, ptr %2, align 8
  %3 = load ptr, ptr %2, align 8
  %4 = call noundef ptr @_ZNKSt19__shared_ptr_accessIN32pxrInternal_v0_24__pxrReserved__12HdRenderPassELN9__gnu_cxx12_Lock_policyE2ELb0ELb0EE6_M_getEv(ptr noundef nonnull align 1 dereferenceable(1) %3) #14
  ret ptr %4
}

; Function Attrs: mustprogress nounwind uwtable
define linkonce_odr noundef nonnull align 8 dereferenceable(8) ptr @_ZNK32pxrInternal_v0_24__pxrReserved__17HdRprimCollection7GetNameEv(ptr noundef nonnull align 8 dereferenceable(104) %0) #4 comdat align 2 {
  %2 = alloca ptr, align 8
  store ptr %0, ptr %2, align 8
  %3 = load ptr, ptr %2, align 8
  %4 = getelementptr inbounds nuw %"class.pxrInternal_v0_24__pxrReserved__::HdRprimCollection", ptr %3, i32 0, i32 1
  ret ptr %4
}

; Function Attrs: mustprogress nounwind uwtable
define linkonce_odr noundef nonnull align 8 dereferenceable(3328) ptr @_ZN32pxrInternal_v0_24__pxrReserved__13HdRenderIndex16GetChangeTrackerEv(ptr noundef nonnull align 8 dereferenceable(4080) %0) #4 comdat align 2 {
  %2 = alloca ptr, align 8
  store ptr %0, ptr %2, align 8
  %3 = load ptr, ptr %2, align 8
  %4 = getelementptr inbounds nuw %"class.pxrInternal_v0_24__pxrReserved__::HdRenderIndex", ptr %3, i32 0, i32 12
  ret ptr %4
}

; Function Attrs: mustprogress nounwind uwtable
define linkonce_odr void @_ZN32pxrInternal_v0_24__pxrReserved__17HdRprimCollection15SetReprSelectorERKNS_14HdReprSelectorE(ptr noundef nonnull align 8 dereferenceable(104) %0, ptr noundef nonnull align 8 dereferenceable(24) %1) #4 comdat align 2 {
  %3 = alloca ptr, align 8
  %4 = alloca ptr, align 8
  store ptr %0, ptr %3, align 8
  store ptr %1, ptr %4, align 8
  %5 = load ptr, ptr %3, align 8
  %6 = load ptr, ptr %4, align 8
  %7 = getelementptr inbounds nuw %"class.pxrInternal_v0_24__pxrReserved__::HdRprimCollection", ptr %5, i32 0, i32 2
  %8 = call noundef nonnull align 8 dereferenceable(24) ptr @_ZN32pxrInternal_v0_24__pxrReserved__14HdReprSelectoraSERKS0_(ptr noundef nonnull align 8 dereferenceable(24) %7, ptr noundef nonnull align 8 dereferenceable(24) %6) #14
  ret void
}

; Function Attrs: mustprogress uwtable
define void @_ZN32pxrInternal_v0_24__pxrReserved__13Hd_TestDriver7SetReprERKNS_14HdReprSelectorE(ptr noundef nonnull align 8 dereferenceable(328) %0, ptr noundef nonnull align 8 dereferenceable(24) %1) #0 align 2 {
  %3 = alloca ptr, align 8
  %4 = alloca ptr, align 8
  %5 = alloca ptr, align 8
  store ptr %0, ptr %3, align 8
  store ptr %1, ptr %4, align 8
  %6 = load ptr, ptr %3, align 8
  %7 = getelementptr inbounds nuw %"class.pxrInternal_v0_24__pxrReserved__::Hd_TestDriver", ptr %6, i32 0, i32 7
  %8 = load ptr, ptr %4, align 8
  call void @_ZN32pxrInternal_v0_24__pxrReserved__17HdRprimCollection15SetReprSelectorERKNS_14HdReprSelectorE(ptr noundef nonnull align 8 dereferenceable(104) %7, ptr noundef nonnull align 8 dereferenceable(24) %8)
  %9 = getelementptr inbounds nuw %"class.pxrInternal_v0_24__pxrReserved__::Hd_TestDriver", ptr %6, i32 0, i32 2
  %10 = load ptr, ptr %9, align 8
  %11 = call noundef nonnull align 8 dereferenceable(3328) ptr @_ZN32pxrInternal_v0_24__pxrReserved__13HdRenderIndex16GetChangeTrackerEv(ptr noundef nonnull align 8 dereferenceable(4080) %10)
  store ptr %11, ptr %5, align 8
  %12 = load ptr, ptr %5, align 8
  %13 = getelementptr inbounds nuw %"class.pxrInternal_v0_24__pxrReserved__::Hd_TestDriver", ptr %6, i32 0, i32 7
  %14 = call noundef nonnull align 8 dereferenceable(8) ptr @_ZNK32pxrInternal_v0_24__pxrReserved__17HdRprimCollection7GetNameEv(ptr noundef nonnull align 8 dereferenceable(104) %13)
  call void @_ZN32pxrInternal_v0_24__pxrReserved__15HdChangeTracker19MarkCollectionDirtyERKNS_7TfTokenE(ptr noundef nonnull align 8 dereferenceable(3328) %12, ptr noundef nonnull align 8 dereferenceable(8) %14)
  %15 = getelementptr inbounds nuw %"class.pxrInternal_v0_24__pxrReserved__::Hd_TestDriver", ptr %6, i32 0, i32 5
  %16 = call noundef ptr @_ZNKSt19__shared_ptr_accessIN32pxrInternal_v0_24__pxrReserved__12HdRenderPassELN9__gnu_cxx12_Lock_policyE2ELb0ELb0EEptEv(ptr noundef nonnull align 1 dereferenceable(1) %15) #14
  %17 = getelementptr inbounds nuw %"class.pxrInternal_v0_24__pxrReserved__::Hd_TestDriver", ptr %6, i32 0, i32 7
  call void @_ZN32pxrInternal_v0_24__pxrReserved__12HdRenderPass18SetRprimCollectionERKNS_17HdRprimCollectionE(ptr noundef nonnull align 8 dereferenceable(120) %16, ptr noundef nonnull align 8 dereferenceable(104) %17)
  ret void
}