; Function Attrs: mustprogress uwtable
define void @_ZN32pxrInternal_v0_24__pxrReserved__13Hd_TestDriver7SetReprERKNS_14HdReprSelectorE(ptr noundef nonnull align 8 dereferenceable(328) %0, ptr noundef nonnull align 8 dereferenceable(24) %1) local_unnamed_addr #0 align 2 {
  %3 = getelementptr inbounds nuw i8, ptr %0, i64 224
  %4 = getelementptr inbounds i8, ptr %0, i64 240
  %5 = tail call noundef nonnull align 8 dereferenceable(24) ptr @_ZN32pxrInternal_v0_24__pxrReserved__14HdReprSelectoraSERKS0_(ptr noundef nonnull align 8 dereferenceable(24) %4, ptr noundef nonnull align 8 dereferenceable(24) %1) #17
  %6 = getelementptr inbounds nuw i8, ptr %0, i64 168
  %7 = load ptr, ptr %6, align 8
  %8 = getelementptr inbounds nuw i8, ptr %7, i64 504
  %9 = getelementptr inbounds i8, ptr %0, i64 232
  tail call void @_ZN32pxrInternal_v0_24__pxrReserved__15HdChangeTracker19MarkCollectionDirtyERKNS_7TfTokenE(ptr noundef nonnull align 8 dereferenceable(3328) %8, ptr noundef nonnull align 8 dereferenceable(8) %9)
  %10 = getelementptr inbounds nuw i8, ptr %0, i64 192
  %11 = load ptr, ptr %10, align 8
  tail call void @_ZN32pxrInternal_v0_24__pxrReserved__12HdRenderPass18SetRprimCollectionERKNS_17HdRprimCollectionE(ptr noundef nonnull align 8 dereferenceable(120) %11, ptr noundef nonnull align 8 dereferenceable(104) %3)
  ret void
}